target datalayout = "e-m:e-p270:32:32-p271:32:32-p272:64:64-i64:64-i128:128-f80:128-n8:16:32:64-S128"
target triple = "x86_64-pc-linux-gnu"

%struct.dynbuf = type { ptr, i64, i64, i64 }
%struct.cf_haproxy_ctx = type { i32, %struct.dynbuf }

@Curl_cfree = external global ptr, align 8
@Curl_ccalloc = external global ptr, align 8

; Function Attrs: nounwind uwtable
define internal void @cf_haproxy_ctx_free(ptr noundef %0) #0 {
  %2 = alloca ptr, align 8
  store ptr %0, ptr %2, align 8, !tbaa !91
  %3 = load ptr, ptr %2, align 8, !tbaa !91
  %4 = icmp ne ptr %3, null
  br i1 %4, label %5, label %10

5:                                                ; preds = %1
  %6 = load ptr, ptr %2, align 8, !tbaa !91
  %7 = getelementptr inbounds nuw %struct.cf_haproxy_ctx, ptr %6, i32 0, i32 1
  call void @Curl_dyn_free(ptr noundef %7)
  %8 = load ptr, ptr @Curl_cfree, align 8, !tbaa !106
  %9 = load ptr, ptr %2, align 8, !tbaa !91
  call void %8(ptr noundef %9)
  br label %10

10:                                               ; preds = %5, %1
  ret void
}

; Function Attrs: nounwind uwtable
define internal i32 @cf_haproxy_create(ptr noundef %0, ptr noundef %1) #0 {
  %3 = alloca ptr, align 8
  %4 = alloca ptr, align 8
  %5 = alloca ptr, align 8
  %6 = alloca ptr, align 8
  %7 = alloca i32, align 4
  store ptr %0, ptr %3, align 8, !tbaa !104
  store ptr %1, ptr %4, align 8, !tbaa !8
  call void @llvm.lifetime.start.p0(i64 8, ptr %5) #3
  store ptr null, ptr %5, align 8, !tbaa !3
  call void @llvm.lifetime.start.p0(i64 8, ptr %6) #3
  call void @llvm.lifetime.start.p0(i64 4, ptr %7) #3
  %8 = load ptr, ptr @Curl_ccalloc, align 8, !tbaa !106
  %9 = call ptr %8(i64 noundef 1, i64 noundef 40)
  store ptr %9, ptr %6, align 8, !tbaa !91
  %10 = load ptr, ptr %6, align 8, !tbaa !91
  %11 = icmp ne ptr %10, null
  br i1 %11, label %13, label %12

12:                                               ; preds = %2
  store i32 27, ptr %7, align 4, !tbaa !97
  br label %24

13:                                               ; preds = %2
  %14 = load ptr, ptr %6, align 8, !tbaa !91
  %15 = getelementptr inbounds nuw %struct.cf_haproxy_ctx, ptr %14, i32 0, i32 0
  store i32 0, ptr %15, align 8, !tbaa !98
  %16 = load ptr, ptr %6, align 8, !tbaa !91
  %17 = getelementptr inbounds nuw %struct.cf_haproxy_ctx, ptr %16, i32 0, i32 1
  call void @Curl_dyn_init(ptr noundef %17, i64 noundef 2048)
  %18 = load ptr, ptr %6, align 8, !tbaa !91
  %19 = call i32 @Curl_cf_create(ptr noundef %5, ptr noundef @Curl_cft_haproxy, ptr noundef %18)
  store i32 %19, ptr %7, align 4, !tbaa !97
  %20 = load i32, ptr %7, align 4, !tbaa !97
  %21 = icmp ne i32 %20, 0
  br i1 %21, label %22, label %23

22:                                               ; preds = %13
  br label %24

23:                                               ; preds = %13
  store ptr null, ptr %6, align 8, !tbaa !91
  br label %24

24:                                               ; preds = %23, %22, %12
  %25 = load ptr, ptr %6, align 8, !tbaa !91
  call void @cf_haproxy_ctx_free(ptr noundef %25)
  %26 = load i32, ptr %7, align 4, !tbaa !97
  %27 = icmp ne i32 %26, 0
  br i1 %27, label %28, label %29

28:                                               ; preds = %24
  br label %31

29:                                               ; preds = %24
  %30 = load ptr, ptr %5, align 8, !tbaa !3
  br label %31

31:                                               ; preds = %29, %28
  %32 = phi ptr [ null, %28 ], [ %30, %29 ]
  %33 = load ptr, ptr %3, align 8, !tbaa !104
  store ptr %32, ptr %33, align 8, !tbaa !3
  %34 = load i32, ptr %7, align 4, !tbaa !97
  call void @llvm.lifetime.end.p0(i64 4, ptr %7) #3
  call void @llvm.lifetime.end.p0(i64 8, ptr %6) #3
  call void @llvm.lifetime.end.p0(i64 8, ptr %5) #3
  ret i32 %34
}

; Function Attrs: nounwind uwtable
define hidden i32 @Curl_cf_haproxy_insert_after(ptr noundef %0, ptr noundef %1) #0 {
  %3 = alloca ptr, align 8
  %4 = alloca ptr, align 8
  %5 = alloca ptr, align 8
  %6 = alloca i32, align 4
  store ptr %0, ptr %3, align 8, !tbaa !3
  store ptr %1, ptr %4, align 8, !tbaa !8
  call void @llvm.lifetime.start.p0(i64 8, ptr %5) #3
  call void @llvm.lifetime.start.p0(i64 4, ptr %6) #3
  %7 = load ptr, ptr %4, align 8, !tbaa !8
  %8 = call i32 @cf_haproxy_create(ptr noundef %5, ptr noundef %7)
  store i32 %8, ptr %6, align 4, !tbaa !97
  %9 = load i32, ptr %6, align 4, !tbaa !97
  %10 = icmp ne i32 %9, 0
  br i1 %10, label %11, label %12

11:                                               ; preds = %2
  br label %15

12:                                               ; preds = %2
  %13 = load ptr, ptr %3, align 8, !tbaa !3
  %14 = load ptr, ptr %5, align 8, !tbaa !3
  call void @Curl_conn_cf_insert_after(ptr noundef %13, ptr noundef %14)
  br label %15

15:                                               ; preds = %12, %11
  %16 = load i32, ptr %6, align 4, !tbaa !97
  call void @llvm.lifetime.end.p0(i64 4, ptr %6) #3
  call void @llvm.lifetime.end.p0(i64 8, ptr %5) #3
  ret i32 %16
}