; Function Attrs: nounwind uwtable
define hidden i32 @Curl_cf_haproxy_insert_after(ptr noundef %0, ptr noundef readnone captures(none) %1) local_unnamed_addr #0 {
  %3 = alloca ptr, align 8
  call void @llvm.lifetime.start.p0(i64 8, ptr nonnull %3) #3
  store ptr null, ptr %3, align 8, !tbaa !108
  %4 = load ptr, ptr @Curl_ccalloc, align 8, !tbaa !84
  %5 = tail call ptr %4(i64 noundef 1, i64 noundef 40) #3
  %.not.i = icmp eq ptr %5, null
  br i1 %.not.i, label %cf_haproxy_create.exit.thread, label %6

6:                                                ; preds = %2
  store i32 0, ptr %5, align 8, !tbaa !92
  %7 = getelementptr inbounds nuw i8, ptr %5, i64 8
  tail call void @Curl_dyn_init(ptr noundef nonnull %7, i64 noundef 2048) #3
  %8 = call i32 @Curl_cf_create(ptr noundef nonnull %3, ptr noundef nonnull @Curl_cft_haproxy, ptr noundef nonnull %5) #3
  %.not12.i = icmp eq i32 %8, 0
  br i1 %.not12.i, label %11, label %9

9:                                                ; preds = %6
  call void @Curl_dyn_free(ptr noundef nonnull %7) #3
  %10 = load ptr, ptr @Curl_cfree, align 8, !tbaa !84
  call void %10(ptr noundef nonnull %5) #3
  br label %cf_haproxy_create.exit.thread

cf_haproxy_create.exit.thread:                    ; preds = %2, %9
  %.048.i.ph = phi i32 [ %8, %9 ], [ 27, %2 ]
  call void @llvm.lifetime.end.p0(i64 8, ptr nonnull %3) #3
  br label %13

11:                                               ; preds = %6
  %12 = load ptr, ptr %3, align 8
  call void @llvm.lifetime.end.p0(i64 8, ptr nonnull %3) #3
  call void @Curl_conn_cf_insert_after(ptr noundef %0, ptr noundef %12) #3
  br label %13

13:                                               ; preds = %cf_haproxy_create.exit.thread, %11
  %.048.i5 = phi i32 [ %.048.i.ph, %cf_haproxy_create.exit.thread ], [ 0, %11 ]
  ret i32 %.048.i5
}